; Function Attrs: nofree norecurse nosync nounwind memory(argmem: readwrite) uwtable
define hidden void @VP8LConvertBGRAToRGB565_C(ptr noalias noundef readonly captures(address) %0, i32 noundef %1, ptr noalias noundef writeonly captures(none) %2) #2 {
  %4 = sext i32 %1 to i64
  %5 = getelementptr inbounds i32, ptr %0, i64 %4
  %6 = icmp sgt i32 %1, 0
  br i1 %6, label %.lr.ph, label %._crit_edge

.lr.ph:                                           ; preds = %3, %.lr.ph
  %.014 = phi ptr [ %7, %.lr.ph ], [ %0, %3 ]
  %.01213 = phi ptr [ %22, %.lr.ph ], [ %2, %3 ]
  %7 = getelementptr inbounds nuw i8, ptr %.014, i64 4
  %8 = load i32, ptr %.014, align 4, !tbaa !3
  %9 = lshr i32 %8, 16
  %10 = and i32 %9, 248
  %11 = lshr i32 %8, 13
  %12 = and i32 %11, 7
  %13 = or disjoint i32 %10, %12
  %14 = trunc nuw i32 %13 to i8
  %15 = lshr i32 %8, 5
  %16 = and i32 %15, 224
  %17 = lshr i32 %8, 3
  %18 = and i32 %17, 31
  %19 = or disjoint i32 %16, %18
  %20 = trunc nuw i32 %19 to i8
  %21 = getelementptr inbounds nuw i8, ptr %.01213, i64 1
  store i8 %14, ptr %.01213, align 1, !tbaa !20
  %22 = getelementptr inbounds nuw i8, ptr %.01213, i64 2
  store i8 %20, ptr %21, align 1, !tbaa !20
  %23 = icmp ult ptr %7, %5
  br i1 %23, label %.lr.ph, label %._crit_edge, !llvm.loop !45

._crit_edge:                                      ; preds = %.lr.ph, %3
  ret void
}